; Function Attrs: mustprogress nounwind uwtable
define dso_local void @_ZN4llvm10AsmPrinter15emitPseudoProbeERKNS_12MachineInstrE(ptr nocapture noundef nonnull readonly align 8 dereferenceable(785) %0, ptr noundef nonnull align 8 dereferenceable(70) %1) local_unnamed_addr #0 align 2 {
  %3 = getelementptr inbounds nuw i8, ptr %0, i64 576
  %4 = load ptr, ptr %3, align 8
  %.not = icmp eq ptr %4, null
  br i1 %.not, label %19, label %5

5:                                                ; preds = %2
  %6 = getelementptr inbounds nuw i8, ptr %1, i64 32
  %7 = load ptr, ptr %6, align 8
  %8 = getelementptr inbounds nuw i8, ptr %7, i64 16
  %9 = load i64, ptr %8, align 8
  %10 = getelementptr inbounds i8, ptr %7, i64 48
  %11 = load i64, ptr %10, align 8
  %12 = getelementptr inbounds i8, ptr %7, i64 80
  %13 = load i64, ptr %12, align 8
  %14 = getelementptr inbounds i8, ptr %7, i64 112
  %15 = load i64, ptr %14, align 8
  %16 = getelementptr inbounds nuw i8, ptr %1, i64 56
  %17 = tail call noundef ptr @_ZNK4llvm8DebugLoc3getEv(ptr noundef nonnull align 8 dereferenceable(8) %16) #33
  %18 = load ptr, ptr %3, align 8
  tail call void @_ZN4llvm18PseudoProbeHandler15emitPseudoProbeEmmmmPKNS_10DILocationE(ptr noundef nonnull align 8 dereferenceable(32) %18, i64 noundef %9, i64 noundef %11, i64 noundef %13, i64 noundef %15, ptr noundef %17) #33
  br label %19

19:                                               ; preds = %5, %2
  ret void
}